; Function Attrs: nounwind uwtable
define ptr @l_Lean_mkPrivateName(ptr noundef %0, ptr noundef %1) local_unnamed_addr #0 {
  %3 = tail call ptr @l_Lean_Environment_mainModule(ptr noundef %0) #3
  %4 = load ptr, ptr @l_Lean_privateHeader, align 8, !tbaa !4
  %5 = tail call ptr @l_Lean_Name_append(ptr noundef %4, ptr noundef %3) #3
  %6 = tail call ptr @l_Lean_Name_num___override(ptr noundef %5, ptr noundef nonnull inttoptr (i64 1 to ptr)) #3
  %7 = tail call ptr @l_Lean_privateToUserName(ptr noundef %1) #3
  %8 = tail call ptr @l_Lean_Name_append(ptr noundef %6, ptr noundef %7) #3
  ret ptr %8
}